target datalayout = "e-m:e-p270:32:32-p271:32:32-p272:64:64-i64:64-i128:128-f80:128-n8:16:32:64-S128"
target triple = "x86_64-pc-linux-gnu"

%class.Type = type { i32, ptr, i32, %"class.std::vector.0", %"class.std::vector.5", i32, i8, i8, i8, i8, i8, %"class.std::vector.10", %"class.std::vector.15" }
%"class.std::vector.0" = type { %"struct.std::_Vector_base.1" }
%"struct.std::_Vector_base.1" = type { %"struct.std::_Vector_base<unsigned int, std::allocator<unsigned int>>::_Vector_impl" }
%"struct.std::_Vector_base<unsigned int, std::allocator<unsigned int>>::_Vector_impl" = type { %"struct.std::_Vector_base<unsigned int, std::allocator<unsigned int>>::_Vector_impl_data" }
%"struct.std::_Vector_base<unsigned int, std::allocator<unsigned int>>::_Vector_impl_data" = type { ptr, ptr, ptr }
%"class.std::vector.5" = type { %"struct.std::_Vector_base.6" }
%"struct.std::_Vector_base.6" = type { %"struct.std::_Vector_base<const Type *, std::allocator<const Type *>>::_Vector_impl" }
%"struct.std::_Vector_base<const Type *, std::allocator<const Type *>>::_Vector_impl" = type { %"struct.std::_Vector_base<const Type *, std::allocator<const Type *>>::_Vector_impl_data" }
%"struct.std::_Vector_base<const Type *, std::allocator<const Type *>>::_Vector_impl_data" = type { ptr, ptr, ptr }
%"class.std::vector.10" = type { %"struct.std::_Vector_base.11" }
%"struct.std::_Vector_base.11" = type { %"struct.std::_Vector_base<CVQualifiers, std::allocator<CVQualifiers>>::_Vector_impl" }
%"struct.std::_Vector_base<CVQualifiers, std::allocator<CVQualifiers>>::_Vector_impl" = type { %"struct.std::_Vector_base<CVQualifiers, std::allocator<CVQualifiers>>::_Vector_impl_data" }
%"struct.std::_Vector_base<CVQualifiers, std::allocator<CVQualifiers>>::_Vector_impl_data" = type { ptr, ptr, ptr }
%"class.std::vector.15" = type { %"struct.std::_Vector_base.16" }
%"struct.std::_Vector_base.16" = type { %"struct.std::_Vector_base<int, std::allocator<int>>::_Vector_impl" }
%"struct.std::_Vector_base<int, std::allocator<int>>::_Vector_impl" = type { %"struct.std::_Vector_base<int, std::allocator<int>>::_Vector_impl_data" }
%"struct.std::_Vector_base<int, std::allocator<int>>::_Vector_impl_data" = type { ptr, ptr, ptr }

; Function Attrs: mustprogress nounwind uwtable
define linkonce_odr dso_local noundef zeroext i1 @_ZNK4Type8is_floatEv(ptr noundef nonnull align 8 dereferenceable(136) %0) #4 comdat align 2 {
  %2 = alloca ptr, align 8
  store ptr %0, ptr %2, align 8, !tbaa !28
  %3 = load ptr, ptr %2, align 8
  %4 = getelementptr inbounds nuw %class.Type, ptr %3, i32 0, i32 0
  %5 = load i32, ptr %4, align 8, !tbaa !32
  %6 = icmp eq i32 %5, 0
  br i1 %6, label %7, label %11

7:                                                ; preds = %1
  %8 = getelementptr inbounds nuw %class.Type, ptr %3, i32 0, i32 2
  %9 = load i32, ptr %8, align 8, !tbaa !55
  %10 = icmp eq i32 %9, 10
  br label %11

11:                                               ; preds = %7, %1
  %12 = phi i1 [ false, %1 ], [ %10, %7 ]
  ret i1 %12
}

; Function Attrs: mustprogress uwtable
define dso_local noundef zeroext i1 @_ZN11SafeOpFlags17return_float_typeEPK4TypeS2_9eUnaryOps(ptr noundef %0, ptr noundef %1, i32 noundef %2) #5 align 2 {
  %4 = alloca i1, align 1
  %5 = alloca ptr, align 8
  %6 = alloca ptr, align 8
  %7 = alloca i32, align 4
  store ptr %0, ptr %5, align 8, !tbaa !28
  store ptr %1, ptr %6, align 8, !tbaa !28
  store i32 %2, ptr %7, align 4, !tbaa !56
  %8 = call noundef zeroext i1 @_ZN9CGOptions12enable_floatEv()
  br i1 %8, label %10, label %9

9:                                                ; preds = %3
  store i1 false, ptr %4, align 1
  br label %29

10:                                               ; preds = %3
  %11 = load ptr, ptr %5, align 8, !tbaa !28
  %12 = icmp ne ptr %11, null
  br i1 %12, label %13, label %17

13:                                               ; preds = %10
  %14 = load ptr, ptr %5, align 8, !tbaa !28
  %15 = call noundef zeroext i1 @_ZNK4Type8is_floatEv(ptr noundef nonnull align 8 dereferenceable(136) %14)
  br i1 %15, label %16, label %17

16:                                               ; preds = %13
  store i1 true, ptr %4, align 1
  br label %29

17:                                               ; preds = %13, %10
  %18 = load ptr, ptr %6, align 8, !tbaa !28
  %19 = icmp ne ptr %18, null
  br i1 %19, label %20, label %24

20:                                               ; preds = %17
  %21 = load ptr, ptr %6, align 8, !tbaa !28
  %22 = call noundef zeroext i1 @_ZNK4Type8is_floatEv(ptr noundef nonnull align 8 dereferenceable(136) %21)
  br i1 %22, label %23, label %24

23:                                               ; preds = %20
  store i1 true, ptr %4, align 1
  br label %29

24:                                               ; preds = %20, %17
  %25 = load i32, ptr %7, align 4, !tbaa !56
  %26 = call noundef zeroext i1 @_ZN18FunctionInvocation20UnaryOpWorksForFloatE9eUnaryOps(i32 noundef %25)
  br i1 %26, label %28, label %27

27:                                               ; preds = %24
  store i1 false, ptr %4, align 1
  br label %29

28:                                               ; preds = %24
  store i1 false, ptr %4, align 1
  br label %29

29:                                               ; preds = %28, %27, %23, %16, %9
  %30 = load i1, ptr %4, align 1
  ret i1 %30
}