; Function Attrs: mustprogress uwtable
define dso_local noundef zeroext i1 @_ZN11SafeOpFlags17return_float_typeEPK4TypeS2_9eUnaryOps(ptr noundef readonly captures(address_is_null) %0, ptr noundef readonly captures(address_is_null) %1, i32 noundef %2) local_unnamed_addr #7 align 2 {
  %4 = tail call noundef zeroext i1 @_ZN9CGOptions12enable_floatEv()
  br i1 %4, label %5, label %23

5:                                                ; preds = %3
  %.not = icmp eq ptr %0, null
  br i1 %.not, label %13, label %6

6:                                                ; preds = %5
  %7 = load i32, ptr %0, align 8, !tbaa !30
  %8 = icmp eq i32 %7, 0
  %9 = getelementptr inbounds nuw i8, ptr %0, i64 16
  %10 = load i32, ptr %9, align 8
  %11 = icmp eq i32 %10, 10
  %12 = select i1 %8, i1 %11, i1 false
  br i1 %12, label %23, label %13

13:                                               ; preds = %6, %5
  %.not7 = icmp eq ptr %1, null
  br i1 %.not7, label %21, label %14

14:                                               ; preds = %13
  %15 = load i32, ptr %1, align 8, !tbaa !30
  %16 = icmp eq i32 %15, 0
  %17 = getelementptr inbounds nuw i8, ptr %1, i64 16
  %18 = load i32, ptr %17, align 8
  %19 = icmp eq i32 %18, 10
  %20 = select i1 %16, i1 %19, i1 false
  br i1 %20, label %23, label %21

21:                                               ; preds = %14, %13
  %22 = tail call noundef zeroext i1 @_ZN18FunctionInvocation20UnaryOpWorksForFloatE9eUnaryOps(i32 noundef %2)
  br label %23

23:                                               ; preds = %14, %6, %3, %21
  %.0 = phi i1 [ false, %21 ], [ false, %3 ], [ true, %6 ], [ true, %14 ]
  ret i1 %.0
}